target datalayout = "e-m:e-p270:32:32-p271:32:32-p272:64:64-i64:64-i128:128-f80:128-n8:16:32:64-S128"
target triple = "x86_64-pc-linux-gnu"

@srt_udp_handle = internal global ptr null, align 8

; Function Attrs: null_pointer_is_valid sspstrong uwtable
define internal zeroext i1 @dissect_srt_heur_udp(ptr noundef %0, ptr noundef %1, ptr noundef %2, ptr noundef %3) #0 {
  %5 = alloca i1, align 1
  %6 = alloca ptr, align 8
  %7 = alloca ptr, align 8
  %8 = alloca ptr, align 8
  %9 = alloca ptr, align 8
  %10 = alloca ptr, align 8
  %11 = alloca i32, align 4
  %12 = alloca i32, align 4
  store ptr %0, ptr %6, align 8
  store ptr %1, ptr %7, align 8
  store ptr %2, ptr %8, align 8
  store ptr %3, ptr %9, align 8
  call void @llvm.lifetime.start.p0(i64 8, ptr %10) #4
  %13 = load ptr, ptr %6, align 8
  %14 = call i32 @tvb_captured_length(ptr noundef %13)
  %15 = icmp ult i32 %14, 24
  br i1 %15, label %16, label %17

16:                                               ; preds = %4
  store i1 false, ptr %5, align 1
  store i32 1, ptr %11, align 4
  br label %50

17:                                               ; preds = %4
  %18 = load ptr, ptr %6, align 8
  %19 = call i32 @tvb_get_ntohl(ptr noundef %18, i32 noundef 0)
  %20 = icmp ne i32 %19, -2147483648
  br i1 %20, label %21, label %22

21:                                               ; preds = %17
  store i1 false, ptr %5, align 1
  store i32 1, ptr %11, align 4
  br label %50

22:                                               ; preds = %17
  call void @llvm.lifetime.start.p0(i64 4, ptr %12) #4
  %23 = load ptr, ptr %6, align 8
  %24 = call i32 @tvb_get_ntohl(ptr noundef %23, i32 noundef 16)
  store i32 %24, ptr %12, align 4
  %25 = load i32, ptr %12, align 4
  %26 = icmp ne i32 %25, 4
  br i1 %26, label %27, label %31

27:                                               ; preds = %22
  %28 = load i32, ptr %12, align 4
  %29 = icmp ne i32 %28, 5
  br i1 %29, label %30, label %31

30:                                               ; preds = %27
  store i1 false, ptr %5, align 1
  store i32 1, ptr %11, align 4
  br label %49

31:                                               ; preds = %27, %22
  %32 = load i32, ptr %12, align 4
  %33 = icmp eq i32 %32, 4
  br i1 %33, label %34, label %39

34:                                               ; preds = %31
  %35 = load ptr, ptr %6, align 8
  %36 = call i32 @tvb_get_ntohl(ptr noundef %35, i32 noundef 20)
  %37 = icmp ne i32 %36, 2
  br i1 %37, label %38, label %39

38:                                               ; preds = %34
  store i1 false, ptr %5, align 1
  store i32 1, ptr %11, align 4
  br label %49

39:                                               ; preds = %34, %31
  %40 = load ptr, ptr %7, align 8
  %41 = call ptr @find_or_create_conversation(ptr noundef %40)
  store ptr %41, ptr %10, align 8
  %42 = load ptr, ptr %10, align 8
  %43 = load ptr, ptr @srt_udp_handle, align 8
  call void @conversation_set_dissector(ptr noundef %42, ptr noundef %43)
  %44 = load ptr, ptr %6, align 8
  %45 = load ptr, ptr %7, align 8
  %46 = load ptr, ptr %8, align 8
  %47 = load ptr, ptr %9, align 8
  %48 = call i32 @dissect_srt_udp(ptr noundef %44, ptr noundef %45, ptr noundef %46, ptr noundef %47)
  store i1 true, ptr %5, align 1
  store i32 1, ptr %11, align 4
  br label %49

49:                                               ; preds = %39, %38, %30
  call void @llvm.lifetime.end.p0(i64 4, ptr %12) #4
  br label %50

50:                                               ; preds = %49, %21, %16
  call void @llvm.lifetime.end.p0(i64 8, ptr %10) #4
  %51 = load i1, ptr %5, align 1
  ret i1 %51
}