; Function Attrs: null_pointer_is_valid sspstrong uwtable
define internal noundef zeroext i1 @dissect_srt_heur_udp(ptr noundef %0, ptr noundef %1, ptr noundef %2, ptr readnone captures(none) %3) #0 {
  %5 = tail call i32 @tvb_captured_length(ptr noundef %0)
  %6 = icmp ult i32 %5, 24
  br i1 %6, label %20, label %7

7:                                                ; preds = %4
  %8 = tail call i32 @tvb_get_ntohl(ptr noundef %0, i32 noundef 0)
  %.not = icmp eq i32 %8, -2147483648
  br i1 %.not, label %9, label %20

9:                                                ; preds = %7
  %10 = tail call i32 @tvb_get_ntohl(ptr noundef %0, i32 noundef 16)
  %11 = add i32 %10, -6
  %or.cond = icmp ult i32 %11, -2
  br i1 %or.cond, label %20, label %12

12:                                               ; preds = %9
  %13 = icmp eq i32 %10, 4
  br i1 %13, label %14, label %16

14:                                               ; preds = %12
  %15 = tail call i32 @tvb_get_ntohl(ptr noundef %0, i32 noundef 20)
  %.not14 = icmp eq i32 %15, 2
  br i1 %.not14, label %16, label %20

16:                                               ; preds = %14, %12
  %17 = tail call ptr @find_or_create_conversation(ptr noundef %1)
  %18 = load ptr, ptr @srt_udp_handle, align 8
  tail call void @conversation_set_dissector(ptr noundef %17, ptr noundef %18)
  %19 = tail call i32 @dissect_srt_udp(ptr noundef %0, ptr noundef %1, ptr noundef %2, ptr poison)
  br label %20

20:                                               ; preds = %16, %9, %14, %7, %4
  %.0 = phi i1 [ false, %4 ], [ false, %7 ], [ true, %16 ], [ false, %9 ], [ false, %14 ]
  ret i1 %.0
}